; Function Attrs: mustprogress uwtable
define void @_ZN6casadi9ConvexifyC2ERKNS_2MXERKSt3mapINSt7__cxx1112basic_stringIcSt11char_traitsIcESaIcEEENS_11GenericTypeESt4lessISA_ESaISt4pairIKSA_SB_EEE(ptr noundef nonnull align 8 dereferenceable(248) %0, ptr noundef nonnull align 8 dereferenceable(8) %1, ptr noundef nonnull align 8 dereferenceable(48) %2) unnamed_addr #3 align 2 personality ptr @__gxx_personality_v0 {
  %4 = alloca %"class.casadi::Sparsity", align 8
  tail call void @_ZN6casadi6MXNodeC2Ev(ptr noundef nonnull align 8 dereferenceable(64) %0)
  store ptr getelementptr inbounds ({ [108 x ptr] }, ptr @_ZTVN6casadi9ConvexifyE, i64 0, i32 0, i64 2), ptr %0, align 8
  %5 = getelementptr inbounds i8, ptr %0, i64 64
  invoke void @_ZN6casadi13ConvexifyDataC2Ev(ptr noundef nonnull align 8 dereferenceable(184) %5)
          to label %6 unwind label %12

6:                                                ; preds = %3
  invoke void @_ZN6casadi6MXNode7set_depERKNS_2MXE(ptr noundef nonnull align 8 dereferenceable(64) %0, ptr noundef nonnull align 8 dereferenceable(8) %1)
          to label %7 unwind label %14

7:                                                ; preds = %6
  %8 = invoke noundef nonnull align 8 dereferenceable(8) ptr @_ZNK6casadi2MX8sparsityEv(ptr noundef nonnull align 8 dereferenceable(8) %1)
          to label %9 unwind label %14

9:                                                ; preds = %7
  invoke void @_ZN6casadi9Convexify5setupERNS_13ConvexifyDataERKNS_8SparsityERKSt3mapINSt7__cxx1112basic_stringIcSt11char_traitsIcESaIcEEENS_11GenericTypeESt4lessISC_ESaISt4pairIKSC_SD_EEEb(ptr dead_on_unwind nonnull writable sret(%"class.casadi::Sparsity") align 8 %4, ptr noundef nonnull align 8 dereferenceable(184) %5, ptr noundef nonnull align 8 dereferenceable(8) %8, ptr noundef nonnull align 8 dereferenceable(48) %2, i1 noundef zeroext false)
          to label %10 unwind label %14

10:                                               ; preds = %9
  invoke void @_ZN6casadi6MXNode12set_sparsityERKNS_8SparsityE(ptr noundef nonnull align 8 dereferenceable(64) %0, ptr noundef nonnull align 8 dereferenceable(8) %4)
          to label %11 unwind label %16

11:                                               ; preds = %10
  call void @_ZN6casadi12SharedObjectD2Ev(ptr noundef nonnull align 8 dereferenceable(8) %4) #21
  ret void

12:                                               ; preds = %3
  %13 = landingpad { ptr, i32 }
          cleanup
  br label %19

14:                                               ; preds = %9, %7, %6
  %15 = landingpad { ptr, i32 }
          cleanup
  br label %18

16:                                               ; preds = %10
  %17 = landingpad { ptr, i32 }
          cleanup
  call void @_ZN6casadi12SharedObjectD2Ev(ptr noundef nonnull align 8 dereferenceable(8) %4) #21
  br label %18

18:                                               ; preds = %16, %14
  %.pn = phi { ptr, i32 } [ %17, %16 ], [ %15, %14 ]
  call void @_ZN6casadi13ConvexifyDataD2Ev(ptr noundef nonnull align 8 dereferenceable(184) %5) #21
  br label %19

19:                                               ; preds = %18, %12
  %.pn.pn = phi { ptr, i32 } [ %.pn, %18 ], [ %13, %12 ]
  call void @_ZN6casadi6MXNodeD2Ev(ptr noundef nonnull align 8 dereferenceable(64) %0) #21
  resume { ptr, i32 } %.pn.pn
}